target datalayout = "e-m:e-p270:32:32-p271:32:32-p272:64:64-i64:64-i128:128-f80:128-n8:16:32:64-S128"
target triple = "x86_64-pc-linux-gnu"

%struct.archive_read = type { %struct.archive, ptr, i32, i64, i64, %struct.archive_read_client, [16 x %struct.archive_read_filter_bidder], ptr, i32, i64, i32, i32, [16 x %struct.archive_format_descriptor], ptr, ptr, ptr, %struct.anon }
%struct.archive = type { i32, i32, ptr, i32, ptr, i32, i32, ptr, %struct.archive_string, ptr, i32, i32, ptr, ptr, i64, i64, i64, i8, i64 }
%struct.archive_string = type { ptr, i64, i64 }
%struct.archive_read_client = type { ptr, ptr, ptr, ptr, ptr, ptr, i32, i32, i64, ptr }
%struct.archive_read_filter_bidder = type { ptr, ptr, ptr }
%struct.archive_format_descriptor = type { ptr, ptr, ptr, ptr, ptr, ptr, ptr, ptr, ptr, ptr, ptr }
%struct.anon = type { ptr, ptr, i32, ptr, ptr }
%struct.lha = type { i64, i64, i64, i16, i64, i8, [3 x i8], i64, i64, i32, i64, i64, i64, i64, i64, i64, i32, i64, i64, %struct.archive_string, %struct.archive_string, i16, i16, ptr, ptr, ptr, %struct.archive_string, %struct.archive_string, %struct.archive_wstring, i8, i8, i8, i8, i8, i8, i8, [64 x i8], %struct.lzh_stream }
%struct.archive_wstring = type { ptr, i64, i64 }
%struct.lzh_stream = type { ptr, i32, i64, ptr, i32, i64, ptr }

@.str.3 = private unnamed_addr constant [11 x i8] c"hdrcharset\00", align 1
@.str.4 = private unnamed_addr constant [50 x i8] c"lha: hdrcharset option needs a character-set name\00", align 1

; Function Attrs: nounwind uwtable
define internal i32 @archive_read_format_lha_options(ptr noundef %0, ptr noundef %1, ptr noundef %2) #0 {
  %4 = alloca i32, align 4
  %5 = alloca ptr, align 8
  %6 = alloca ptr, align 8
  %7 = alloca ptr, align 8
  %8 = alloca ptr, align 8
  %9 = alloca i32, align 4
  %10 = alloca i32, align 4
  store ptr %0, ptr %5, align 8, !tbaa !9
  store ptr %1, ptr %6, align 8, !tbaa !28
  store ptr %2, ptr %7, align 8, !tbaa !28
  call void @llvm.lifetime.start.p0(i64 8, ptr %8) #11
  call void @llvm.lifetime.start.p0(i64 4, ptr %9) #11
  store i32 -25, ptr %9, align 4, !tbaa !11
  %11 = load ptr, ptr %5, align 8, !tbaa !9
  %12 = getelementptr inbounds nuw %struct.archive_read, ptr %11, i32 0, i32 13
  %13 = load ptr, ptr %12, align 8, !tbaa !35
  %14 = getelementptr inbounds nuw %struct.archive_format_descriptor, ptr %13, i32 0, i32 0
  %15 = load ptr, ptr %14, align 8, !tbaa !48
  store ptr %15, ptr %8, align 8, !tbaa !13
  %16 = load ptr, ptr %6, align 8, !tbaa !28
  %17 = call i32 @strcmp(ptr noundef %16, ptr noundef @.str.3) #13
  %18 = icmp eq i32 %17, 0
  br i1 %18, label %19, label %47

19:                                               ; preds = %3
  %20 = load ptr, ptr %7, align 8, !tbaa !28
  %21 = icmp eq ptr %20, null
  br i1 %21, label %28, label %22

22:                                               ; preds = %19
  %23 = load ptr, ptr %7, align 8, !tbaa !28
  %24 = getelementptr inbounds i8, ptr %23, i64 0
  %25 = load i8, ptr %24, align 1, !tbaa !29
  %26 = sext i8 %25 to i32
  %27 = icmp eq i32 %26, 0
  br i1 %27, label %28, label %31

28:                                               ; preds = %22, %19
  %29 = load ptr, ptr %5, align 8, !tbaa !9
  %30 = getelementptr inbounds nuw %struct.archive_read, ptr %29, i32 0, i32 0
  call void (ptr, i32, ptr, ...) @archive_set_error(ptr noundef %30, i32 noundef -1, ptr noundef @.str.4)
  br label %45

31:                                               ; preds = %22
  %32 = load ptr, ptr %5, align 8, !tbaa !9
  %33 = getelementptr inbounds nuw %struct.archive_read, ptr %32, i32 0, i32 0
  %34 = load ptr, ptr %7, align 8, !tbaa !28
  %35 = call ptr @archive_string_conversion_from_charset(ptr noundef %33, ptr noundef %34, i32 noundef 0)
  %36 = load ptr, ptr %8, align 8, !tbaa !13
  %37 = getelementptr inbounds nuw %struct.lha, ptr %36, i32 0, i32 25
  store ptr %35, ptr %37, align 8, !tbaa !50
  %38 = load ptr, ptr %8, align 8, !tbaa !13
  %39 = getelementptr inbounds nuw %struct.lha, ptr %38, i32 0, i32 25
  %40 = load ptr, ptr %39, align 8, !tbaa !50
  %41 = icmp ne ptr %40, null
  br i1 %41, label %42, label %43

42:                                               ; preds = %31
  store i32 0, ptr %9, align 4, !tbaa !11
  br label %44

43:                                               ; preds = %31
  store i32 -30, ptr %9, align 4, !tbaa !11
  br label %44

44:                                               ; preds = %43, %42
  br label %45

45:                                               ; preds = %44, %28
  %46 = load i32, ptr %9, align 4, !tbaa !11
  store i32 %46, ptr %4, align 4
  store i32 1, ptr %10, align 4
  br label %48

47:                                               ; preds = %3
  store i32 -20, ptr %4, align 4
  store i32 1, ptr %10, align 4
  br label %48

48:                                               ; preds = %47, %45
  call void @llvm.lifetime.end.p0(i64 4, ptr %9) #11
  call void @llvm.lifetime.end.p0(i64 8, ptr %8) #11
  %49 = load i32, ptr %4, align 4
  ret i32 %49
}